; Function Attrs: mustprogress nounwind uwtable
define hidden void @_ZN27JvmtiEventControllerPrivate10event_initEv() local_unnamed_addr #3 align 2 {
  %1 = load i8, ptr @_ZN27JvmtiEventControllerPrivate12_initializedE, align 1
  %2 = trunc i8 %1 to i1
  br i1 %2, label %36, label %3

3:                                                ; preds = %0
  %4 = load i8, ptr @_ZN10JvmtiTrace23_trace_event_controllerE, align 1
  %5 = trunc i8 %4 to i1
  br i1 %5, label %6, label %_ZN16SafeResourceMarkD2Ev.exit

6:                                                ; preds = %3
  %7 = load i32, ptr @_ZN7Threads18_number_of_threadsE, align 4
  %8 = icmp eq i32 %7, 0
  br i1 %8, label %9, label %11

9:                                                ; preds = %6
  %10 = tail call noundef ptr @_ZN9JvmtiUtil29single_threaded_resource_areaEv() #15
  br label %_ZN16SafeResourceMarkC2Ev.exit

11:                                               ; preds = %6
  %12 = tail call align 8 ptr @llvm.threadlocal.address.p0(ptr align 8 @_ZN6Thread12_thr_currentE)
  %13 = load ptr, ptr %12, align 8
  %14 = icmp eq ptr %13, null
  br i1 %14, label %15, label %17

15:                                               ; preds = %11
  %16 = tail call noundef ptr @_ZN9JvmtiUtil29single_threaded_resource_areaEv() #15
  br label %_ZN16SafeResourceMarkC2Ev.exit

17:                                               ; preds = %11
  %18 = getelementptr inbounds i8, ptr %13, i64 800
  %19 = load ptr, ptr %18, align 8
  br label %_ZN16SafeResourceMarkC2Ev.exit

_ZN16SafeResourceMarkC2Ev.exit:                   ; preds = %9, %15, %17
  %.0.i.i = phi ptr [ %10, %9 ], [ %16, %15 ], [ %19, %17 ]
  %20 = getelementptr inbounds i8, ptr %.0.i.i, i64 24
  %21 = load ptr, ptr %20, align 8
  %22 = getelementptr inbounds i8, ptr %.0.i.i, i64 32
  %23 = load ptr, ptr %22, align 8
  %24 = getelementptr inbounds i8, ptr %.0.i.i, i64 40
  %25 = load ptr, ptr %24, align 8
  %26 = getelementptr inbounds i8, ptr %.0.i.i, i64 8
  %27 = load i64, ptr %26, align 8
  %28 = load volatile ptr, ptr getelementptr inbounds (i8, ptr @_ZN16LogTagSetMappingILN6LogTag4typeE69ELS1_0ELS1_0ELS1_0ELS1_0ELS1_0EE7_tagsetE, i64 48), align 8
  %.not = icmp eq ptr %28, null
  br i1 %.not, label %30, label %29

29:                                               ; preds = %_ZN16SafeResourceMarkC2Ev.exit
  tail call void (ptr, ...) @_ZN7LogImplILN6LogTag4typeE69ELS1_0ELS1_0ELS1_0ELS1_0ELS1_0EE5writeILN8LogLevel4typeE1EEEvPKcz(ptr noundef nonnull @.str.35)
  br label %30

30:                                               ; preds = %_ZN16SafeResourceMarkC2Ev.exit, %29
  %31 = load ptr, ptr %21, align 8
  %.not.i.i.i.i.i = icmp eq ptr %31, null
  br i1 %.not.i.i.i.i.i, label %33, label %32

32:                                               ; preds = %30
  tail call void @_ZN5Arena17set_size_in_bytesEm(ptr noundef nonnull align 8 dereferenceable(48) %.0.i.i, i64 noundef %27) #15
  tail call void @_ZN5Chunk9next_chopEPS_(ptr noundef nonnull %21) #15
  br label %33

33:                                               ; preds = %32, %30
  %34 = load ptr, ptr %22, align 8
  %.not8.i.i.i.i.i = icmp eq ptr %34, %23
  br i1 %.not8.i.i.i.i.i, label %_ZN16SafeResourceMarkD2Ev.exit, label %35

35:                                               ; preds = %33
  store ptr %21, ptr %20, align 8
  store ptr %23, ptr %22, align 8
  store ptr %25, ptr %24, align 8
  br label %_ZN16SafeResourceMarkD2Ev.exit

_ZN16SafeResourceMarkD2Ev.exit:                   ; preds = %35, %33, %3
  store i8 1, ptr @_ZN27JvmtiEventControllerPrivate12_initializedE, align 1
  br label %36

36:                                               ; preds = %0, %_ZN16SafeResourceMarkD2Ev.exit
  ret void
}